target datalayout = "e-m:e-p270:32:32-p271:32:32-p272:64:64-i64:64-i128:128-f80:128-n8:16:32:64-S128"
target triple = "x86_64-pc-linux-gnu"

; Function Attrs: alwaysinline nounwind uwtable
define internal void @dnxhd_10bit_get_pixels_8x4_sym(ptr noalias noundef %0, ptr noundef %1, i64 noundef %2) #5 {
  %4 = alloca ptr, align 8
  %5 = alloca ptr, align 8
  %6 = alloca i64, align 8
  store ptr %0, ptr %4, align 8, !tbaa !123
  store ptr %1, ptr %5, align 8, !tbaa !111
  store i64 %2, ptr %6, align 8, !tbaa !134
  %7 = load ptr, ptr %4, align 8, !tbaa !123
  %8 = getelementptr inbounds i16, ptr %7, i64 0
  %9 = load ptr, ptr %5, align 8, !tbaa !111
  %10 = load i64, ptr %6, align 8, !tbaa !134
  %11 = mul nsw i64 0, %10
  %12 = getelementptr inbounds i8, ptr %9, i64 %11
  call void @llvm.memcpy.p0.p0.i64(ptr align 2 %8, ptr align 1 %12, i64 16, i1 false)
  %13 = load ptr, ptr %4, align 8, !tbaa !123
  %14 = getelementptr inbounds i16, ptr %13, i64 56
  %15 = load ptr, ptr %5, align 8, !tbaa !111
  %16 = load i64, ptr %6, align 8, !tbaa !134
  %17 = mul nsw i64 0, %16
  %18 = getelementptr inbounds i8, ptr %15, i64 %17
  call void @llvm.memcpy.p0.p0.i64(ptr align 2 %14, ptr align 1 %18, i64 16, i1 false)
  %19 = load ptr, ptr %4, align 8, !tbaa !123
  %20 = getelementptr inbounds i16, ptr %19, i64 8
  %21 = load ptr, ptr %5, align 8, !tbaa !111
  %22 = load i64, ptr %6, align 8, !tbaa !134
  %23 = mul nsw i64 1, %22
  %24 = getelementptr inbounds i8, ptr %21, i64 %23
  call void @llvm.memcpy.p0.p0.i64(ptr align 2 %20, ptr align 1 %24, i64 16, i1 false)
  %25 = load ptr, ptr %4, align 8, !tbaa !123
  %26 = getelementptr inbounds i16, ptr %25, i64 48
  %27 = load ptr, ptr %5, align 8, !tbaa !111
  %28 = load i64, ptr %6, align 8, !tbaa !134
  %29 = mul nsw i64 1, %28
  %30 = getelementptr inbounds i8, ptr %27, i64 %29
  call void @llvm.memcpy.p0.p0.i64(ptr align 2 %26, ptr align 1 %30, i64 16, i1 false)
  %31 = load ptr, ptr %4, align 8, !tbaa !123
  %32 = getelementptr inbounds i16, ptr %31, i64 16
  %33 = load ptr, ptr %5, align 8, !tbaa !111
  %34 = load i64, ptr %6, align 8, !tbaa !134
  %35 = mul nsw i64 2, %34
  %36 = getelementptr inbounds i8, ptr %33, i64 %35
  call void @llvm.memcpy.p0.p0.i64(ptr align 2 %32, ptr align 1 %36, i64 16, i1 false)
  %37 = load ptr, ptr %4, align 8, !tbaa !123
  %38 = getelementptr inbounds i16, ptr %37, i64 40
  %39 = load ptr, ptr %5, align 8, !tbaa !111
  %40 = load i64, ptr %6, align 8, !tbaa !134
  %41 = mul nsw i64 2, %40
  %42 = getelementptr inbounds i8, ptr %39, i64 %41
  call void @llvm.memcpy.p0.p0.i64(ptr align 2 %38, ptr align 1 %42, i64 16, i1 false)
  %43 = load ptr, ptr %4, align 8, !tbaa !123
  %44 = getelementptr inbounds i16, ptr %43, i64 24
  %45 = load ptr, ptr %5, align 8, !tbaa !111
  %46 = load i64, ptr %6, align 8, !tbaa !134
  %47 = mul nsw i64 3, %46
  %48 = getelementptr inbounds i8, ptr %45, i64 %47
  call void @llvm.memcpy.p0.p0.i64(ptr align 2 %44, ptr align 1 %48, i64 16, i1 false)
  %49 = load ptr, ptr %4, align 8, !tbaa !123
  %50 = getelementptr inbounds i16, ptr %49, i64 32
  %51 = load ptr, ptr %5, align 8, !tbaa !111
  %52 = load i64, ptr %6, align 8, !tbaa !134
  %53 = mul nsw i64 3, %52
  %54 = getelementptr inbounds i8, ptr %51, i64 %53
  call void @llvm.memcpy.p0.p0.i64(ptr align 2 %50, ptr align 1 %54, i64 16, i1 false)
  ret void
}