; Function Attrs: alwaysinline mustprogress nofree norecurse nosync nounwind willreturn memory(argmem: readwrite) uwtable
define internal void @dnxhd_10bit_get_pixels_8x4_sym(ptr noalias noundef writeonly captures(none) initializes((0, 128)) %0, ptr noundef readonly captures(none) %1, i64 noundef %2) #6 {
  tail call void @llvm.memcpy.p0.p0.i64(ptr noundef nonnull align 2 dereferenceable(16) %0, ptr noundef nonnull align 1 dereferenceable(16) %1, i64 16, i1 false)
  %4 = getelementptr inbounds nuw i8, ptr %0, i64 112
  tail call void @llvm.memcpy.p0.p0.i64(ptr noundef nonnull align 2 dereferenceable(16) %4, ptr noundef nonnull align 1 dereferenceable(16) %1, i64 16, i1 false)
  %5 = getelementptr inbounds nuw i8, ptr %0, i64 16
  %6 = getelementptr inbounds i8, ptr %1, i64 %2
  tail call void @llvm.memcpy.p0.p0.i64(ptr noundef nonnull align 2 dereferenceable(16) %5, ptr noundef nonnull align 1 dereferenceable(16) %6, i64 16, i1 false)
  %7 = getelementptr inbounds nuw i8, ptr %0, i64 96
  tail call void @llvm.memcpy.p0.p0.i64(ptr noundef nonnull align 2 dereferenceable(16) %7, ptr noundef nonnull align 1 dereferenceable(16) %6, i64 16, i1 false)
  %8 = getelementptr inbounds nuw i8, ptr %0, i64 32
  %9 = shl nsw i64 %2, 1
  %10 = getelementptr inbounds i8, ptr %1, i64 %9
  tail call void @llvm.memcpy.p0.p0.i64(ptr noundef nonnull align 2 dereferenceable(16) %8, ptr noundef nonnull align 1 dereferenceable(16) %10, i64 16, i1 false)
  %11 = getelementptr inbounds nuw i8, ptr %0, i64 80
  tail call void @llvm.memcpy.p0.p0.i64(ptr noundef nonnull align 2 dereferenceable(16) %11, ptr noundef nonnull align 1 dereferenceable(16) %10, i64 16, i1 false)
  %12 = getelementptr inbounds nuw i8, ptr %0, i64 48
  %13 = mul nsw i64 %2, 3
  %14 = getelementptr inbounds i8, ptr %1, i64 %13
  tail call void @llvm.memcpy.p0.p0.i64(ptr noundef nonnull align 2 dereferenceable(16) %12, ptr noundef nonnull align 1 dereferenceable(16) %14, i64 16, i1 false)
  %15 = getelementptr inbounds nuw i8, ptr %0, i64 64
  tail call void @llvm.memcpy.p0.p0.i64(ptr noundef nonnull align 2 dereferenceable(16) %15, ptr noundef nonnull align 1 dereferenceable(16) %14, i64 16, i1 false)
  ret void
}